; Function Attrs: mustprogress uwtable
define hidden noundef zeroext i1 @_ZNK19OpenColorIO_v2_5dev15ReferenceOpData6equalsERKNS_6OpDataE(ptr noundef nonnull align 8 dereferenceable(244) %0, ptr noundef nonnull align 8 dereferenceable(168) %1) unnamed_addr #0 align 2 personality ptr @__gxx_personality_v0 {
  %3 = tail call noundef zeroext i1 @_ZNK19OpenColorIO_v2_5dev6OpData6equalsERKS0_(ptr noundef nonnull align 8 dereferenceable(168) %0, ptr noundef nonnull align 8 dereferenceable(168) %1)
  br i1 %3, label %4, label %_ZStneIcSt11char_traitsIcESaIcEEbRKNSt7__cxx1112basic_stringIT_T0_T1_EESA_.exit.thread

4:                                                ; preds = %2
  %5 = getelementptr inbounds nuw i8, ptr %0, i64 168
  %6 = load i32, ptr %5, align 8, !tbaa !6
  %7 = getelementptr inbounds nuw i8, ptr %1, i64 168
  %8 = load i32, ptr %7, align 8, !tbaa !6
  %.not = icmp eq i32 %6, %8
  br i1 %.not, label %9, label %_ZStneIcSt11char_traitsIcESaIcEEbRKNSt7__cxx1112basic_stringIT_T0_T1_EESA_.exit.thread

9:                                                ; preds = %4
  %10 = getelementptr inbounds nuw i8, ptr %0, i64 240
  %11 = load i32, ptr %10, align 8, !tbaa !34
  %12 = getelementptr inbounds nuw i8, ptr %1, i64 240
  %13 = load i32, ptr %12, align 8, !tbaa !34
  %.not9 = icmp eq i32 %11, %13
  br i1 %.not9, label %14, label %_ZStneIcSt11char_traitsIcESaIcEEbRKNSt7__cxx1112basic_stringIT_T0_T1_EESA_.exit.thread

14:                                               ; preds = %9
  %15 = icmp eq i32 %6, 0
  br i1 %15, label %16, label %28

16:                                               ; preds = %14
  %17 = getelementptr inbounds nuw i8, ptr %0, i64 176
  %18 = getelementptr inbounds nuw i8, ptr %1, i64 176
  %19 = getelementptr inbounds nuw i8, ptr %0, i64 184
  %20 = load i64, ptr %19, align 8, !tbaa !32
  %21 = getelementptr inbounds nuw i8, ptr %1, i64 184
  %22 = load i64, ptr %21, align 8, !tbaa !32
  %23 = icmp eq i64 %20, %22
  br i1 %23, label %24, label %_ZStneIcSt11char_traitsIcESaIcEEbRKNSt7__cxx1112basic_stringIT_T0_T1_EESA_.exit.thread

24:                                               ; preds = %16
  %25 = icmp eq i64 %20, 0
  br i1 %25, label %_ZStneIcSt11char_traitsIcESaIcEEbRKNSt7__cxx1112basic_stringIT_T0_T1_EESA_.exit.thread12, label %_ZStneIcSt11char_traitsIcESaIcEEbRKNSt7__cxx1112basic_stringIT_T0_T1_EESA_.exit

_ZStneIcSt11char_traitsIcESaIcEEbRKNSt7__cxx1112basic_stringIT_T0_T1_EESA_.exit: ; preds = %24
  %26 = load ptr, ptr %18, align 8, !tbaa !35
  %27 = load ptr, ptr %17, align 8, !tbaa !35
  %bcmp.i.i = tail call i32 @bcmp(ptr %27, ptr %26, i64 %20)
  %.not15 = icmp eq i32 %bcmp.i.i, 0
  br i1 %.not15, label %_ZStneIcSt11char_traitsIcESaIcEEbRKNSt7__cxx1112basic_stringIT_T0_T1_EESA_.exit.thread12, label %_ZStneIcSt11char_traitsIcESaIcEEbRKNSt7__cxx1112basic_stringIT_T0_T1_EESA_.exit.thread

28:                                               ; preds = %14
  %29 = getelementptr inbounds nuw i8, ptr %0, i64 208
  %30 = getelementptr inbounds nuw i8, ptr %1, i64 208
  %31 = getelementptr inbounds nuw i8, ptr %0, i64 216
  %32 = load i64, ptr %31, align 8, !tbaa !32
  %33 = getelementptr inbounds nuw i8, ptr %1, i64 216
  %34 = load i64, ptr %33, align 8, !tbaa !32
  %35 = icmp eq i64 %32, %34
  br i1 %35, label %36, label %_ZStneIcSt11char_traitsIcESaIcEEbRKNSt7__cxx1112basic_stringIT_T0_T1_EESA_.exit.thread

36:                                               ; preds = %28
  %37 = icmp eq i64 %32, 0
  br i1 %37, label %_ZStneIcSt11char_traitsIcESaIcEEbRKNSt7__cxx1112basic_stringIT_T0_T1_EESA_.exit.thread12, label %_ZStneIcSt11char_traitsIcESaIcEEbRKNSt7__cxx1112basic_stringIT_T0_T1_EESA_.exit11

_ZStneIcSt11char_traitsIcESaIcEEbRKNSt7__cxx1112basic_stringIT_T0_T1_EESA_.exit11: ; preds = %36
  %38 = load ptr, ptr %30, align 8, !tbaa !35
  %39 = load ptr, ptr %29, align 8, !tbaa !35
  %bcmp.i.i10 = tail call i32 @bcmp(ptr %39, ptr %38, i64 %32)
  %.not14 = icmp eq i32 %bcmp.i.i10, 0
  br i1 %.not14, label %_ZStneIcSt11char_traitsIcESaIcEEbRKNSt7__cxx1112basic_stringIT_T0_T1_EESA_.exit.thread12, label %_ZStneIcSt11char_traitsIcESaIcEEbRKNSt7__cxx1112basic_stringIT_T0_T1_EESA_.exit.thread

_ZStneIcSt11char_traitsIcESaIcEEbRKNSt7__cxx1112basic_stringIT_T0_T1_EESA_.exit.thread12: ; preds = %36, %24, %_ZStneIcSt11char_traitsIcESaIcEEbRKNSt7__cxx1112basic_stringIT_T0_T1_EESA_.exit11, %_ZStneIcSt11char_traitsIcESaIcEEbRKNSt7__cxx1112basic_stringIT_T0_T1_EESA_.exit
  br label %_ZStneIcSt11char_traitsIcESaIcEEbRKNSt7__cxx1112basic_stringIT_T0_T1_EESA_.exit.thread

_ZStneIcSt11char_traitsIcESaIcEEbRKNSt7__cxx1112basic_stringIT_T0_T1_EESA_.exit.thread: ; preds = %28, %16, %_ZStneIcSt11char_traitsIcESaIcEEbRKNSt7__cxx1112basic_stringIT_T0_T1_EESA_.exit.thread12, %4, %9, %_ZStneIcSt11char_traitsIcESaIcEEbRKNSt7__cxx1112basic_stringIT_T0_T1_EESA_.exit, %_ZStneIcSt11char_traitsIcESaIcEEbRKNSt7__cxx1112basic_stringIT_T0_T1_EESA_.exit11, %2
  %.0 = phi i1 [ false, %2 ], [ true, %_ZStneIcSt11char_traitsIcESaIcEEbRKNSt7__cxx1112basic_stringIT_T0_T1_EESA_.exit.thread12 ], [ false, %4 ], [ false, %9 ], [ false, %_ZStneIcSt11char_traitsIcESaIcEEbRKNSt7__cxx1112basic_stringIT_T0_T1_EESA_.exit ], [ false, %_ZStneIcSt11char_traitsIcESaIcEEbRKNSt7__cxx1112basic_stringIT_T0_T1_EESA_.exit11 ], [ false, %16 ], [ false, %28 ]
  ret i1 %.0
}